target datalayout = "e-m:e-p270:32:32-p271:32:32-p272:64:64-i64:64-i128:128-f80:128-n8:16:32:64-S128"
target triple = "x86_64-pc-linux-gnu"

%struct.SparseMatrix_struct = type { i32, i32, i32, i32, i32, ptr, ptr, ptr, i32, i8, i64 }

@stderr = external global ptr, align 8
@.str = private unnamed_addr constant [58 x i8] c"integer overflow when trying to allocate %zu * %zu bytes\0A\00", align 1
@.str.1 = private unnamed_addr constant [49 x i8] c"out of memory when trying to allocate %zu bytes\0A\00", align 1

; Function Attrs: inlinehint nounwind uwtable
define internal ptr @gv_calloc(i64 noundef %0, i64 noundef %1) #2 {
  %3 = alloca i64, align 8
  %4 = alloca i64, align 8
  %5 = alloca ptr, align 8
  store i64 %0, ptr %3, align 8, !tbaa !52
  store i64 %1, ptr %4, align 8, !tbaa !52
  %6 = load i64, ptr %3, align 8, !tbaa !52
  %7 = icmp ugt i64 %6, 0
  br i1 %7, label %8, label %18

8:                                                ; preds = %2
  %9 = load i64, ptr %3, align 8, !tbaa !52
  %10 = udiv i64 -1, %9
  %11 = load i64, ptr %4, align 8, !tbaa !52
  %12 = icmp ult i64 %10, %11
  br i1 %12, label %13, label %18

13:                                               ; preds = %8
  %14 = load ptr, ptr @stderr, align 8, !tbaa !85
  %15 = load i64, ptr %3, align 8, !tbaa !52
  %16 = load i64, ptr %4, align 8, !tbaa !52
  %17 = call i32 (ptr, ptr, ...) @fprintf(ptr noundef %14, ptr noundef @.str, i64 noundef %15, i64 noundef %16) #11
  call void @graphviz_exit(i32 noundef 1) #12
  unreachable

18:                                               ; preds = %8, %2
  call void @llvm.lifetime.start.p0(i64 8, ptr %5) #11
  %19 = load i64, ptr %3, align 8, !tbaa !52
  %20 = load i64, ptr %4, align 8, !tbaa !52
  %21 = call noalias ptr @calloc(i64 noundef %19, i64 noundef %20) #13
  store ptr %21, ptr %5, align 8, !tbaa !87
  %22 = load i64, ptr %3, align 8, !tbaa !52
  %23 = icmp ugt i64 %22, 0
  br i1 %23, label %24, label %36

24:                                               ; preds = %18
  %25 = load i64, ptr %4, align 8, !tbaa !52
  %26 = icmp ugt i64 %25, 0
  br i1 %26, label %27, label %36

27:                                               ; preds = %24
  %28 = load ptr, ptr %5, align 8, !tbaa !87
  %29 = icmp eq ptr %28, null
  br i1 %29, label %30, label %36

30:                                               ; preds = %27
  %31 = load ptr, ptr @stderr, align 8, !tbaa !85
  %32 = load i64, ptr %3, align 8, !tbaa !52
  %33 = load i64, ptr %4, align 8, !tbaa !52
  %34 = mul i64 %32, %33
  %35 = call i32 (ptr, ptr, ...) @fprintf(ptr noundef %31, ptr noundef @.str.1, i64 noundef %34) #11
  call void @graphviz_exit(i32 noundef 1) #12
  unreachable

36:                                               ; preds = %27, %24, %18
  %37 = load ptr, ptr %5, align 8, !tbaa !87
  call void @llvm.lifetime.end.p0(i64 8, ptr %5) #11
  ret ptr %37
}

; Function Attrs: nounwind uwtable
define internal ptr @SparseMatrix_alloc(ptr noundef %0, i32 noundef %1) #0 {
  %3 = alloca ptr, align 8
  %4 = alloca i32, align 4
  %5 = alloca i32, align 4
  %6 = alloca i64, align 8
  store ptr %0, ptr %3, align 8, !tbaa !3
  store i32 %1, ptr %4, align 4, !tbaa !17
  call void @llvm.lifetime.start.p0(i64 4, ptr %5) #11
  %7 = load ptr, ptr %3, align 8, !tbaa !3
  %8 = getelementptr inbounds nuw %struct.SparseMatrix_struct, ptr %7, i32 0, i32 8
  %9 = load i32, ptr %8, align 8, !tbaa !21
  store i32 %9, ptr %5, align 4, !tbaa !17
  call void @llvm.lifetime.start.p0(i64 8, ptr %6) #11
  %10 = load i32, ptr %4, align 4, !tbaa !17
  %11 = sext i32 %10 to i64
  store i64 %11, ptr %6, align 8, !tbaa !52
  %12 = load ptr, ptr %3, align 8, !tbaa !3
  %13 = getelementptr inbounds nuw %struct.SparseMatrix_struct, ptr %12, i32 0, i32 7
  store ptr null, ptr %13, align 8, !tbaa !27
  %14 = load i32, ptr %5, align 4, !tbaa !17
  switch i32 %14, label %32 [
    i32 1, label %15
    i32 0, label %31
  ]

15:                                               ; preds = %2
  %16 = load i64, ptr %6, align 8, !tbaa !52
  %17 = call ptr @gv_calloc(i64 noundef %16, i64 noundef 4)
  %18 = load ptr, ptr %3, align 8, !tbaa !3
  %19 = getelementptr inbounds nuw %struct.SparseMatrix_struct, ptr %18, i32 0, i32 5
  store ptr %17, ptr %19, align 8, !tbaa !8
  %20 = load i64, ptr %6, align 8, !tbaa !52
  %21 = call ptr @gv_calloc(i64 noundef %20, i64 noundef 4)
  %22 = load ptr, ptr %3, align 8, !tbaa !3
  %23 = getelementptr inbounds nuw %struct.SparseMatrix_struct, ptr %22, i32 0, i32 6
  store ptr %21, ptr %23, align 8, !tbaa !15
  %24 = load i64, ptr %6, align 8, !tbaa !52
  %25 = load ptr, ptr %3, align 8, !tbaa !3
  %26 = getelementptr inbounds nuw %struct.SparseMatrix_struct, ptr %25, i32 0, i32 10
  %27 = load i64, ptr %26, align 8, !tbaa !71
  %28 = call ptr @gv_calloc(i64 noundef %24, i64 noundef %27)
  %29 = load ptr, ptr %3, align 8, !tbaa !3
  %30 = getelementptr inbounds nuw %struct.SparseMatrix_struct, ptr %29, i32 0, i32 7
  store ptr %28, ptr %30, align 8, !tbaa !27
  br label %53

31:                                               ; preds = %2
  br label %32

32:                                               ; preds = %2, %31
  %33 = load i64, ptr %6, align 8, !tbaa !52
  %34 = call ptr @gv_calloc(i64 noundef %33, i64 noundef 4)
  %35 = load ptr, ptr %3, align 8, !tbaa !3
  %36 = getelementptr inbounds nuw %struct.SparseMatrix_struct, ptr %35, i32 0, i32 6
  store ptr %34, ptr %36, align 8, !tbaa !15
  %37 = load ptr, ptr %3, align 8, !tbaa !3
  %38 = getelementptr inbounds nuw %struct.SparseMatrix_struct, ptr %37, i32 0, i32 10
  %39 = load i64, ptr %38, align 8, !tbaa !71
  %40 = icmp ugt i64 %39, 0
  br i1 %40, label %41, label %52

41:                                               ; preds = %32
  %42 = load i64, ptr %6, align 8, !tbaa !52
  %43 = icmp ugt i64 %42, 0
  br i1 %43, label %44, label %52

44:                                               ; preds = %41
  %45 = load i64, ptr %6, align 8, !tbaa !52
  %46 = load ptr, ptr %3, align 8, !tbaa !3
  %47 = getelementptr inbounds nuw %struct.SparseMatrix_struct, ptr %46, i32 0, i32 10
  %48 = load i64, ptr %47, align 8, !tbaa !71
  %49 = call ptr @gv_calloc(i64 noundef %45, i64 noundef %48)
  %50 = load ptr, ptr %3, align 8, !tbaa !3
  %51 = getelementptr inbounds nuw %struct.SparseMatrix_struct, ptr %50, i32 0, i32 7
  store ptr %49, ptr %51, align 8, !tbaa !27
  br label %52

52:                                               ; preds = %44, %41, %32
  br label %53

53:                                               ; preds = %52, %15
  %54 = load i32, ptr %4, align 4, !tbaa !17
  %55 = load ptr, ptr %3, align 8, !tbaa !3
  %56 = getelementptr inbounds nuw %struct.SparseMatrix_struct, ptr %55, i32 0, i32 3
  store i32 %54, ptr %56, align 4, !tbaa !88
  %57 = load ptr, ptr %3, align 8, !tbaa !3
  call void @llvm.lifetime.end.p0(i64 8, ptr %6) #11
  call void @llvm.lifetime.end.p0(i64 4, ptr %5) #11
  ret ptr %57
}