; Function Attrs: nofree nounwind uwtable
define internal fastcc noundef ptr @SparseMatrix_alloc(ptr noundef returned captures(ret: address, provenance) initializes((40, 48)) %0, i32 noundef range(i32 1, -2147483648) %1) unnamed_addr #4 {
  %3 = getelementptr inbounds nuw i8, ptr %0, i64 48
  %4 = load i32, ptr %3, align 8, !tbaa !18
  %5 = zext nneg i32 %1 to i64
  %6 = getelementptr inbounds nuw i8, ptr %0, i64 40
  store ptr null, ptr %6, align 8, !tbaa !13
  %cond = icmp eq i32 %4, 1
  %7 = tail call noalias ptr @calloc(i64 noundef range(i64 -4294967296, 4294967295) %5, i64 noundef 4) #20
  %8 = icmp eq ptr %7, null
  br i1 %cond, label %9, label %37

9:                                                ; preds = %2
  br i1 %8, label %10, label %14

10:                                               ; preds = %9
  %11 = load ptr, ptr @stderr, align 8, !tbaa !43
  %12 = shl nuw nsw i64 %5, 2
  %13 = tail call i32 (ptr, ptr, ...) @fprintf(ptr noundef %11, ptr noundef nonnull @.str.1, i64 noundef %12) #18
  tail call fastcc void @graphviz_exit() #19
  unreachable

14:                                               ; preds = %9
  %15 = getelementptr inbounds nuw i8, ptr %0, i64 24
  store ptr %7, ptr %15, align 8, !tbaa !3
  %16 = tail call noalias ptr @calloc(i64 noundef range(i64 -4294967296, 4294967295) %5, i64 noundef 4) #20
  %17 = icmp eq ptr %16, null
  br i1 %17, label %18, label %gv_calloc.exit24

18:                                               ; preds = %14
  %19 = load ptr, ptr @stderr, align 8, !tbaa !43
  %20 = shl nuw nsw i64 %5, 2
  %21 = tail call i32 (ptr, ptr, ...) @fprintf(ptr noundef %19, ptr noundef nonnull @.str.1, i64 noundef %20) #18
  tail call fastcc void @graphviz_exit() #19
  unreachable

gv_calloc.exit24:                                 ; preds = %14
  %22 = getelementptr inbounds nuw i8, ptr %0, i64 32
  store ptr %16, ptr %22, align 8, !tbaa !12
  %23 = getelementptr inbounds nuw i8, ptr %0, i64 56
  %24 = load i64, ptr %23, align 8, !tbaa !62
  %mul.i25 = tail call { i64, i1 } @llvm.umul.with.overflow.i64(i64 range(i64 -4294967296, 4294967295) %5, i64 %24)
  %mul.ov.i26 = extractvalue { i64, i1 } %mul.i25, 1
  br i1 %mul.ov.i26, label %25, label %28

25:                                               ; preds = %gv_calloc.exit24
  %26 = load ptr, ptr @stderr, align 8, !tbaa !43
  %27 = tail call i32 (ptr, ptr, ...) @fprintf(ptr noundef %26, ptr noundef nonnull @.str, i64 noundef range(i64 -4294967296, 4294967295) %5, i64 noundef %24) #18
  tail call fastcc void @graphviz_exit() #19
  unreachable

28:                                               ; preds = %gv_calloc.exit24
  %29 = tail call noalias ptr @calloc(i64 noundef range(i64 -4294967296, 4294967295) %5, i64 noundef %24) #20
  %30 = icmp ne i64 %24, 0
  %31 = icmp eq ptr %29, null
  %32 = and i1 %30, %31
  br i1 %32, label %33, label %.sink.split

33:                                               ; preds = %28
  %34 = load ptr, ptr @stderr, align 8, !tbaa !43
  %35 = mul i64 %24, %5
  %36 = tail call i32 (ptr, ptr, ...) @fprintf(ptr noundef %34, ptr noundef nonnull @.str.1, i64 noundef %35) #18
  tail call fastcc void @graphviz_exit() #19
  unreachable

37:                                               ; preds = %2
  br i1 %8, label %38, label %gv_calloc.exit30

38:                                               ; preds = %37
  %39 = load ptr, ptr @stderr, align 8, !tbaa !43
  %40 = shl nuw nsw i64 %5, 2
  %41 = tail call i32 (ptr, ptr, ...) @fprintf(ptr noundef %39, ptr noundef nonnull @.str.1, i64 noundef %40) #18
  tail call fastcc void @graphviz_exit() #19
  unreachable

gv_calloc.exit30:                                 ; preds = %37
  %42 = getelementptr inbounds nuw i8, ptr %0, i64 32
  store ptr %7, ptr %42, align 8, !tbaa !12
  %43 = getelementptr inbounds nuw i8, ptr %0, i64 56
  %44 = load i64, ptr %43, align 8, !tbaa !62
  %.not = icmp eq i64 %44, 0
  br i1 %.not, label %56, label %45

45:                                               ; preds = %gv_calloc.exit30
  %mul.i31 = tail call { i64, i1 } @llvm.umul.with.overflow.i64(i64 range(i64 -4294967296, 4294967295) %5, i64 %44)
  %mul.ov.i32 = extractvalue { i64, i1 } %mul.i31, 1
  br i1 %mul.ov.i32, label %46, label %49

46:                                               ; preds = %45
  %47 = load ptr, ptr @stderr, align 8, !tbaa !43
  %48 = tail call i32 (ptr, ptr, ...) @fprintf(ptr noundef %47, ptr noundef nonnull @.str, i64 noundef range(i64 -4294967296, 4294967295) %5, i64 noundef %44) #18
  tail call fastcc void @graphviz_exit() #19
  unreachable

49:                                               ; preds = %45
  %50 = tail call noalias ptr @calloc(i64 noundef range(i64 -4294967296, 4294967295) %5, i64 noundef %44) #20
  %51 = icmp eq ptr %50, null
  br i1 %51, label %52, label %.sink.split

52:                                               ; preds = %49
  %53 = load ptr, ptr @stderr, align 8, !tbaa !43
  %54 = mul i64 %44, %5
  %55 = tail call i32 (ptr, ptr, ...) @fprintf(ptr noundef %53, ptr noundef nonnull @.str.1, i64 noundef %54) #18
  tail call fastcc void @graphviz_exit() #19
  unreachable

.sink.split:                                      ; preds = %49, %28
  %.sink = phi ptr [ %29, %28 ], [ %50, %49 ]
  store ptr %.sink, ptr %6, align 8, !tbaa !13
  br label %56

56:                                               ; preds = %.sink.split, %gv_calloc.exit30
  %57 = getelementptr inbounds nuw i8, ptr %0, i64 12
  store i32 %1, ptr %57, align 4, !tbaa !75
  ret ptr %0
}